target datalayout = "e-m:e-p270:32:32-p271:32:32-p272:64:64-i64:64-i128:128-f80:128-n8:16:32:64-S128"
target triple = "x86_64-unknown-linux-gnu"

%"class.v8::IndirectHandleBase" = type { ptr }
%"class.v8::Local" = type { %"class.v8::LocalBase" }
%"class.v8::LocalBase" = type { %"class.v8::IndirectHandleBase" }
%"class.node::HandleWrap" = type { %"class.node::AsyncWrap", i32, %"class.node::ListNode", ptr }
%"class.node::AsyncWrap" = type { %"class.node::BaseObject", i32, i8, double, double }
%"class.node::BaseObject" = type { %"class.node::MemoryRetainer", %"class.v8::Global", ptr, ptr }
%"class.node::MemoryRetainer" = type { ptr }
%"class.v8::Global" = type { %"class.v8::PersistentBase" }
%"class.v8::PersistentBase" = type { %"class.v8::IndirectHandleBase" }
%"class.node::ListNode" = type { ptr, ptr }

; Function Attrs: mustprogress nounwind uwtable
define linkonce_odr dso_local void @_ZN4node10BaseObject11OnGCCollectEv(ptr noundef nonnull align 8 dereferenceable(32) %this) unnamed_addr #4 comdat align 2 {
entry:
  %this.addr = alloca ptr, align 8
  store ptr %this, ptr %this.addr, align 8
  %this1 = load ptr, ptr %this.addr, align 8
  %isnull = icmp eq ptr %this1, null
  br i1 %isnull, label %delete.end, label %delete.notnull

delete.notnull:                                   ; preds = %entry
  %vtable = load ptr, ptr %this1, align 8
  %vfn = getelementptr inbounds ptr, ptr %vtable, i64 1
  %0 = load ptr, ptr %vfn, align 8
  call void %0(ptr noundef nonnull align 8 dereferenceable(32) %this1) #3
  br label %delete.end

delete.end:                                       ; preds = %delete.notnull, %entry
  ret void
}

; Function Attrs: mustprogress nounwind uwtable
define dso_local void @_ZN4node10HandleWrap11OnGCCollectEv(ptr noundef nonnull align 8 dereferenceable(88) %this) unnamed_addr #4 align 2 {
entry:
  %this.addr.i.i = alloca ptr, align 8
  %this.addr.i4 = alloca ptr, align 8
  %this.addr.i = alloca ptr, align 8
  %this.addr = alloca ptr, align 8
  %agg.tmp = alloca %"class.v8::Local", align 8
  store ptr %this, ptr %this.addr, align 8
  %this1 = load ptr, ptr %this.addr, align 8
  %state_ = getelementptr inbounds %"class.node::HandleWrap", ptr %this1, i32 0, i32 1
  %0 = load i32, ptr %state_, align 8
  %cmp = icmp ne i32 %0, 2
  br i1 %cmp, label %if.then, label %if.else

if.then:                                          ; preds = %entry
  call void @llvm.memset.p0.i64(ptr align 8 %agg.tmp, i8 0, i64 8, i1 false)
  store ptr %agg.tmp, ptr %this.addr.i, align 8
  %this1.i = load ptr, ptr %this.addr.i, align 8
  store ptr %this1.i, ptr %this.addr.i4, align 8
  %this1.i5 = load ptr, ptr %this.addr.i4, align 8
  store ptr %this1.i5, ptr %this.addr.i.i, align 8
  %this1.i.i = load ptr, ptr %this.addr.i.i, align 8
  store ptr null, ptr %this1.i.i, align 8
  %coerce.dive = getelementptr inbounds %"class.v8::Local", ptr %agg.tmp, i32 0, i32 0
  %coerce.dive2 = getelementptr inbounds %"class.v8::LocalBase", ptr %coerce.dive, i32 0, i32 0
  %coerce.dive3 = getelementptr inbounds %"class.v8::IndirectHandleBase", ptr %coerce.dive2, i32 0, i32 0
  %1 = load ptr, ptr %coerce.dive3, align 8
  %vtable = load ptr, ptr %this1, align 8
  %vfn = getelementptr inbounds ptr, ptr %vtable, i64 18
  %2 = load ptr, ptr %vfn, align 8
  call void %2(ptr noundef nonnull align 8 dereferenceable(88) %this1, ptr %1)
  br label %if.end

if.else:                                          ; preds = %entry
  call void @_ZN4node10BaseObject11OnGCCollectEv(ptr noundef nonnull align 8 dereferenceable(32) %this1)
  br label %if.end

if.end:                                           ; preds = %if.else, %if.then
  ret void
}