; Function Attrs: mustprogress nounwind uwtable
define dso_local void @_ZN4node10HandleWrap11OnGCCollectEv(ptr noundef nonnull align 8 dereferenceable(88) %this) unnamed_addr #3 align 2 {
entry:
  %state_ = getelementptr inbounds i8, ptr %this, i64 56
  %0 = load i32, ptr %state_, align 8
  %cmp.not = icmp eq i32 %0, 2
  %vtable.i = load ptr, ptr %this, align 8
  br i1 %cmp.not, label %if.else, label %if.then

if.then:                                          ; preds = %entry
  %vfn = getelementptr inbounds i8, ptr %vtable.i, i64 144
  %1 = load ptr, ptr %vfn, align 8
  tail call void %1(ptr noundef nonnull align 8 dereferenceable(88) %this, ptr null) #14
  br label %if.end

if.else:                                          ; preds = %entry
  %vfn.i = getelementptr inbounds i8, ptr %vtable.i, i64 8
  %2 = load ptr, ptr %vfn.i, align 8
  tail call void %2(ptr noundef nonnull align 8 dereferenceable(32) %this) #14
  br label %if.end

if.end:                                           ; preds = %if.else, %if.then
  ret void
}